target datalayout = "e-m:e-p270:32:32-p271:32:32-p272:64:64-i64:64-i128:128-f80:128-n8:16:32:64-S128"
target triple = "x86_64-unknown-linux-gnu"

%struct.BlockCopyCallState = type { ptr, i64, i64, i32, i64, i8, ptr, ptr, ptr, i8, %struct.QemuCoSleep, i8, %struct.anon.3, i8, i32 }
%struct.QemuCoSleep = type { ptr }
%struct.anon.3 = type { ptr, ptr }

@.str.1 = private unnamed_addr constant [27 x i8] c"../qemu/block/block-copy.c\00", align 1
@__func__.block_copy_call_failed = private unnamed_addr constant [23 x i8] c"block_copy_call_failed\00", align 1

; Function Attrs: nounwind sspstrong uwtable
define dso_local zeroext i1 @block_copy_call_failed(ptr noundef %call_state) #0 {
entry:
  %call_state.addr = alloca ptr, align 8
  %_val = alloca i8, align 1
  %tmp = alloca i8, align 1
  %tmp7 = alloca i8, align 1
  %atomic-temp = alloca i8, align 1
  store ptr %call_state, ptr %call_state.addr, align 8
  br label %while.cond

while.cond:                                       ; preds = %do.end, %entry
  br i1 false, label %while.body, label %while.end

while.body:                                       ; preds = %while.cond
  br label %do.body

do.body:                                          ; preds = %while.body
  call void @g_assertion_message_expr(ptr noundef null, ptr noundef @.str.1, i32 noundef 993, ptr noundef @__func__.block_copy_call_failed, ptr noundef null) #10
  unreachable

do.end:                                           ; No predecessors!
  br label %while.cond

while.end:                                        ; preds = %while.cond
  %0 = load ptr, ptr %call_state.addr, align 8
  %finished = getelementptr inbounds %struct.BlockCopyCallState, ptr %0, i32 0, i32 9
  %1 = load atomic i8, ptr %finished acquire, align 8
  store i8 %1, ptr %_val, align 1
  %2 = load i8, ptr %_val, align 1
  %tobool = trunc i8 %2 to i1
  %frombool = zext i1 %tobool to i8
  store i8 %frombool, ptr %tmp, align 1
  %3 = load i8, ptr %tmp, align 1
  %tobool1 = trunc i8 %3 to i1
  br i1 %tobool1, label %land.lhs.true, label %land.end

land.lhs.true:                                    ; preds = %while.end
  br label %while.cond2

while.cond2:                                      ; preds = %do.end5, %land.lhs.true
  br i1 false, label %while.body3, label %while.end6

while.body3:                                      ; preds = %while.cond2
  br label %do.body4

do.body4:                                         ; preds = %while.body3
  call void @g_assertion_message_expr(ptr noundef null, ptr noundef @.str.1, i32 noundef 994, ptr noundef @__func__.block_copy_call_failed, ptr noundef null) #10
  unreachable

do.end5:                                          ; No predecessors!
  br label %while.cond2

while.end6:                                       ; preds = %while.cond2
  %4 = load ptr, ptr %call_state.addr, align 8
  %cancelled = getelementptr inbounds %struct.BlockCopyCallState, ptr %4, i32 0, i32 11
  %5 = load atomic i8, ptr %cancelled monotonic, align 8
  store i8 %5, ptr %atomic-temp, align 1
  %6 = load i8, ptr %atomic-temp, align 1
  %tobool8 = trunc i8 %6 to i1
  %frombool9 = zext i1 %tobool8 to i8
  store i8 %frombool9, ptr %tmp7, align 1
  %7 = load i8, ptr %tmp7, align 1
  %tobool10 = trunc i8 %7 to i1
  br i1 %tobool10, label %land.end, label %land.rhs

land.rhs:                                         ; preds = %while.end6
  %8 = load ptr, ptr %call_state.addr, align 8
  %ret = getelementptr inbounds %struct.BlockCopyCallState, ptr %8, i32 0, i32 14
  %9 = load i32, ptr %ret, align 4
  %cmp = icmp slt i32 %9, 0
  br label %land.end

land.end:                                         ; preds = %land.rhs, %while.end6, %while.end
  %10 = phi i1 [ false, %while.end6 ], [ false, %while.end ], [ %cmp, %land.rhs ]
  ret i1 %10
}